target datalayout = "e-m:e-p270:32:32-p271:32:32-p272:64:64-i64:64-i128:128-f80:128-n8:16:32:64-S128"
target triple = "x86_64-pc-linux-gnu"

%"class.cv::dnn::util::NormalizedBBox" = type { float, float, float, float, i8, float }

; Function Attrs: mustprogress nounwind uwtable
define linkonce_odr hidden noundef float @_ZNK2cv3dnn4util14NormalizedBBox4sizeEv(ptr noundef nonnull align 4 dereferenceable(24) %0) #5 comdat align 2 {
  %2 = alloca ptr, align 8
  store ptr %0, ptr %2, align 8, !tbaa !189
  %3 = load ptr, ptr %2, align 8
  %4 = getelementptr inbounds nuw %"class.cv::dnn::util::NormalizedBBox", ptr %3, i32 0, i32 5
  %5 = load float, ptr %4, align 4, !tbaa !206
  ret float %5
}

; Function Attrs: mustprogress nounwind uwtable
define linkonce_odr hidden noundef zeroext i1 @_ZNK2cv3dnn4util14NormalizedBBox8has_sizeEv(ptr noundef nonnull align 4 dereferenceable(24) %0) #5 comdat align 2 {
  %2 = alloca ptr, align 8
  store ptr %0, ptr %2, align 8, !tbaa !189
  %3 = load ptr, ptr %2, align 8
  %4 = getelementptr inbounds nuw %"class.cv::dnn::util::NormalizedBBox", ptr %3, i32 0, i32 4
  %5 = load i8, ptr %4, align 4, !tbaa !205, !range !40, !noundef !41
  %6 = trunc i8 %5 to i1
  ret i1 %6
}

; Function Attrs: mustprogress uwtable
define linkonce_odr hidden noundef float @_ZN2cv3dnn24DetectionOutputLayerImpl8BBoxSizeERKNS0_4util14NormalizedBBoxEb(ptr noundef nonnull align 4 dereferenceable(24) %0, i1 noundef zeroext %1) #6 comdat align 2 {
  %3 = alloca float, align 4
  %4 = alloca ptr, align 8
  %5 = alloca i8, align 1
  %6 = alloca float, align 4
  %7 = alloca float, align 4
  %8 = alloca i32, align 4
  store ptr %0, ptr %4, align 8, !tbaa !189
  %9 = zext i1 %1 to i8
  store i8 %9, ptr %5, align 1, !tbaa !38
  %10 = load ptr, ptr %4, align 8, !tbaa !189
  %11 = getelementptr inbounds nuw %"class.cv::dnn::util::NormalizedBBox", ptr %10, i32 0, i32 2
  %12 = load float, ptr %11, align 4, !tbaa !80
  %13 = load ptr, ptr %4, align 8, !tbaa !189
  %14 = getelementptr inbounds nuw %"class.cv::dnn::util::NormalizedBBox", ptr %13, i32 0, i32 0
  %15 = load float, ptr %14, align 4, !tbaa !78
  %16 = fcmp olt float %12, %15
  br i1 %16, label %25, label %17

17:                                               ; preds = %2
  %18 = load ptr, ptr %4, align 8, !tbaa !189
  %19 = getelementptr inbounds nuw %"class.cv::dnn::util::NormalizedBBox", ptr %18, i32 0, i32 3
  %20 = load float, ptr %19, align 4, !tbaa !79
  %21 = load ptr, ptr %4, align 8, !tbaa !189
  %22 = getelementptr inbounds nuw %"class.cv::dnn::util::NormalizedBBox", ptr %21, i32 0, i32 1
  %23 = load float, ptr %22, align 4, !tbaa !76
  %24 = fcmp olt float %20, %23
  br i1 %24, label %25, label %26

25:                                               ; preds = %17, %2
  store float 0.000000e+00, ptr %3, align 4
  br label %60

26:                                               ; preds = %17
  %27 = load ptr, ptr %4, align 8, !tbaa !189
  %28 = call noundef zeroext i1 @_ZNK2cv3dnn4util14NormalizedBBox8has_sizeEv(ptr noundef nonnull align 4 dereferenceable(24) %27)
  br i1 %28, label %29, label %32

29:                                               ; preds = %26
  %30 = load ptr, ptr %4, align 8, !tbaa !189
  %31 = call noundef float @_ZNK2cv3dnn4util14NormalizedBBox4sizeEv(ptr noundef nonnull align 4 dereferenceable(24) %30)
  store float %31, ptr %3, align 4
  br label %60

32:                                               ; preds = %26
  call void @llvm.lifetime.start.p0(i64 4, ptr %6) #3
  %33 = load ptr, ptr %4, align 8, !tbaa !189
  %34 = getelementptr inbounds nuw %"class.cv::dnn::util::NormalizedBBox", ptr %33, i32 0, i32 2
  %35 = load float, ptr %34, align 4, !tbaa !80
  %36 = load ptr, ptr %4, align 8, !tbaa !189
  %37 = getelementptr inbounds nuw %"class.cv::dnn::util::NormalizedBBox", ptr %36, i32 0, i32 0
  %38 = load float, ptr %37, align 4, !tbaa !78
  %39 = fsub float %35, %38
  store float %39, ptr %6, align 4, !tbaa !46
  call void @llvm.lifetime.start.p0(i64 4, ptr %7) #3
  %40 = load ptr, ptr %4, align 8, !tbaa !189
  %41 = getelementptr inbounds nuw %"class.cv::dnn::util::NormalizedBBox", ptr %40, i32 0, i32 3
  %42 = load float, ptr %41, align 4, !tbaa !79
  %43 = load ptr, ptr %4, align 8, !tbaa !189
  %44 = getelementptr inbounds nuw %"class.cv::dnn::util::NormalizedBBox", ptr %43, i32 0, i32 1
  %45 = load float, ptr %44, align 4, !tbaa !76
  %46 = fsub float %42, %45
  store float %46, ptr %7, align 4, !tbaa !46
  %47 = load i8, ptr %5, align 1, !tbaa !38, !range !40, !noundef !41
  %48 = trunc i8 %47 to i1
  br i1 %48, label %49, label %53

49:                                               ; preds = %32
  %50 = load float, ptr %6, align 4, !tbaa !46
  %51 = load float, ptr %7, align 4, !tbaa !46
  %52 = fmul float %50, %51
  store float %52, ptr %3, align 4
  store i32 1, ptr %8, align 4
  br label %59

53:                                               ; preds = %32
  %54 = load float, ptr %6, align 4, !tbaa !46
  %55 = fadd float %54, 1.000000e+00
  %56 = load float, ptr %7, align 4, !tbaa !46
  %57 = fadd float %56, 1.000000e+00
  %58 = fmul float %55, %57
  store float %58, ptr %3, align 4
  store i32 1, ptr %8, align 4
  br label %59

59:                                               ; preds = %53, %49
  call void @llvm.lifetime.end.p0(i64 4, ptr %7) #3
  call void @llvm.lifetime.end.p0(i64 4, ptr %6) #3
  br label %60

60:                                               ; preds = %59, %29, %25
  %61 = load float, ptr %3, align 4
  ret float %61
}

; Function Attrs: inlinehint mustprogress nounwind uwtable
define linkonce_odr noundef nonnull align 4 dereferenceable(4) ptr @_ZSt3minIfERKT_S2_S2_(ptr noundef nonnull align 4 dereferenceable(4) %0, ptr noundef nonnull align 4 dereferenceable(4) %1) #11 comdat {
  %3 = alloca ptr, align 8
  %4 = alloca ptr, align 8
  %5 = alloca ptr, align 8
  store ptr %0, ptr %4, align 8, !tbaa !64
  store ptr %1, ptr %5, align 8, !tbaa !64
  %6 = load ptr, ptr %5, align 8, !tbaa !64
  %7 = load float, ptr %6, align 4, !tbaa !46
  %8 = load ptr, ptr %4, align 8, !tbaa !64
  %9 = load float, ptr %8, align 4, !tbaa !46
  %10 = fcmp olt float %7, %9
  br i1 %10, label %11, label %13

11:                                               ; preds = %2
  %12 = load ptr, ptr %5, align 8, !tbaa !64
  store ptr %12, ptr %3, align 8
  br label %15

13:                                               ; preds = %2
  %14 = load ptr, ptr %4, align 8, !tbaa !64
  store ptr %14, ptr %3, align 8
  br label %15

15:                                               ; preds = %13, %11
  %16 = load ptr, ptr %3, align 8
  ret ptr %16
}

; Function Attrs: inlinehint mustprogress nounwind uwtable
define linkonce_odr noundef nonnull align 4 dereferenceable(4) ptr @_ZSt3maxIfERKT_S2_S2_(ptr noundef nonnull align 4 dereferenceable(4) %0, ptr noundef nonnull align 4 dereferenceable(4) %1) #11 comdat {
  %3 = alloca ptr, align 8
  %4 = alloca ptr, align 8
  %5 = alloca ptr, align 8
  store ptr %0, ptr %4, align 8, !tbaa !64
  store ptr %1, ptr %5, align 8, !tbaa !64
  %6 = load ptr, ptr %4, align 8, !tbaa !64
  %7 = load float, ptr %6, align 4, !tbaa !46
  %8 = load ptr, ptr %5, align 8, !tbaa !64
  %9 = load float, ptr %8, align 4, !tbaa !46
  %10 = fcmp olt float %7, %9
  br i1 %10, label %11, label %13

11:                                               ; preds = %2
  %12 = load ptr, ptr %5, align 8, !tbaa !64
  store ptr %12, ptr %3, align 8
  br label %15

13:                                               ; preds = %2
  %14 = load ptr, ptr %4, align 8, !tbaa !64
  store ptr %14, ptr %3, align 8
  br label %15

15:                                               ; preds = %13, %11
  %16 = load ptr, ptr %3, align 8
  ret ptr %16
}

; Function Attrs: mustprogress nounwind uwtable
define linkonce_odr hidden void @_ZN2cv3dnn4util14NormalizedBBoxC2Ev(ptr noundef nonnull align 4 dereferenceable(24) %0) unnamed_addr #5 comdat align 2 {
  %2 = alloca ptr, align 8
  store ptr %0, ptr %2, align 8, !tbaa !189
  %3 = load ptr, ptr %2, align 8
  %4 = getelementptr inbounds nuw %"class.cv::dnn::util::NormalizedBBox", ptr %3, i32 0, i32 0
  store float 0.000000e+00, ptr %4, align 4, !tbaa !78
  %5 = getelementptr inbounds nuw %"class.cv::dnn::util::NormalizedBBox", ptr %3, i32 0, i32 1
  store float 0.000000e+00, ptr %5, align 4, !tbaa !76
  %6 = getelementptr inbounds nuw %"class.cv::dnn::util::NormalizedBBox", ptr %3, i32 0, i32 2
  store float 0.000000e+00, ptr %6, align 4, !tbaa !80
  %7 = getelementptr inbounds nuw %"class.cv::dnn::util::NormalizedBBox", ptr %3, i32 0, i32 3
  store float 0.000000e+00, ptr %7, align 4, !tbaa !79
  %8 = getelementptr inbounds nuw %"class.cv::dnn::util::NormalizedBBox", ptr %3, i32 0, i32 4
  store i8 0, ptr %8, align 4, !tbaa !205
  %9 = getelementptr inbounds nuw %"class.cv::dnn::util::NormalizedBBox", ptr %3, i32 0, i32 5
  store float 0.000000e+00, ptr %9, align 4, !tbaa !206
  ret void
}

; Function Attrs: mustprogress uwtable
define linkonce_odr hidden noundef float @_ZN2cv3dnn24DetectionOutputLayerImpl14JaccardOverlapILb0EEEfRKNS0_4util14NormalizedBBoxES6_(ptr noundef nonnull align 4 dereferenceable(24) %0, ptr noundef nonnull align 4 dereferenceable(24) %1) #6 comdat align 2 {
  %3 = alloca float, align 4
  %4 = alloca ptr, align 8
  %5 = alloca ptr, align 8
  %6 = alloca %"class.cv::dnn::util::NormalizedBBox", align 4
  %7 = alloca float, align 4
  %8 = alloca float, align 4
  %9 = alloca float, align 4
  %10 = alloca i32, align 4
  store ptr %0, ptr %4, align 8, !tbaa !189
  store ptr %1, ptr %5, align 8, !tbaa !189
  call void @llvm.lifetime.start.p0(i64 24, ptr %6) #3
  call void @_ZN2cv3dnn4util14NormalizedBBoxC2Ev(ptr noundef nonnull align 4 dereferenceable(24) %6)
  %11 = load ptr, ptr %4, align 8, !tbaa !189
  %12 = getelementptr inbounds nuw %"class.cv::dnn::util::NormalizedBBox", ptr %11, i32 0, i32 0
  %13 = load ptr, ptr %5, align 8, !tbaa !189
  %14 = getelementptr inbounds nuw %"class.cv::dnn::util::NormalizedBBox", ptr %13, i32 0, i32 0
  %15 = call noundef nonnull align 4 dereferenceable(4) ptr @_ZSt3maxIfERKT_S2_S2_(ptr noundef nonnull align 4 dereferenceable(4) %12, ptr noundef nonnull align 4 dereferenceable(4) %14)
  %16 = load float, ptr %15, align 4, !tbaa !46
  %17 = getelementptr inbounds nuw %"class.cv::dnn::util::NormalizedBBox", ptr %6, i32 0, i32 0
  store float %16, ptr %17, align 4, !tbaa !78
  %18 = load ptr, ptr %4, align 8, !tbaa !189
  %19 = getelementptr inbounds nuw %"class.cv::dnn::util::NormalizedBBox", ptr %18, i32 0, i32 1
  %20 = load ptr, ptr %5, align 8, !tbaa !189
  %21 = getelementptr inbounds nuw %"class.cv::dnn::util::NormalizedBBox", ptr %20, i32 0, i32 1
  %22 = call noundef nonnull align 4 dereferenceable(4) ptr @_ZSt3maxIfERKT_S2_S2_(ptr noundef nonnull align 4 dereferenceable(4) %19, ptr noundef nonnull align 4 dereferenceable(4) %21)
  %23 = load float, ptr %22, align 4, !tbaa !46
  %24 = getelementptr inbounds nuw %"class.cv::dnn::util::NormalizedBBox", ptr %6, i32 0, i32 1
  store float %23, ptr %24, align 4, !tbaa !76
  %25 = load ptr, ptr %4, align 8, !tbaa !189
  %26 = getelementptr inbounds nuw %"class.cv::dnn::util::NormalizedBBox", ptr %25, i32 0, i32 2
  %27 = load ptr, ptr %5, align 8, !tbaa !189
  %28 = getelementptr inbounds nuw %"class.cv::dnn::util::NormalizedBBox", ptr %27, i32 0, i32 2
  %29 = call noundef nonnull align 4 dereferenceable(4) ptr @_ZSt3minIfERKT_S2_S2_(ptr noundef nonnull align 4 dereferenceable(4) %26, ptr noundef nonnull align 4 dereferenceable(4) %28)
  %30 = load float, ptr %29, align 4, !tbaa !46
  %31 = getelementptr inbounds nuw %"class.cv::dnn::util::NormalizedBBox", ptr %6, i32 0, i32 2
  store float %30, ptr %31, align 4, !tbaa !80
  %32 = load ptr, ptr %4, align 8, !tbaa !189
  %33 = getelementptr inbounds nuw %"class.cv::dnn::util::NormalizedBBox", ptr %32, i32 0, i32 3
  %34 = load ptr, ptr %5, align 8, !tbaa !189
  %35 = getelementptr inbounds nuw %"class.cv::dnn::util::NormalizedBBox", ptr %34, i32 0, i32 3
  %36 = call noundef nonnull align 4 dereferenceable(4) ptr @_ZSt3minIfERKT_S2_S2_(ptr noundef nonnull align 4 dereferenceable(4) %33, ptr noundef nonnull align 4 dereferenceable(4) %35)
  %37 = load float, ptr %36, align 4, !tbaa !46
  %38 = getelementptr inbounds nuw %"class.cv::dnn::util::NormalizedBBox", ptr %6, i32 0, i32 3
  store float %37, ptr %38, align 4, !tbaa !79
  call void @llvm.lifetime.start.p0(i64 4, ptr %7) #3
  %39 = call noundef float @_ZN2cv3dnn24DetectionOutputLayerImpl8BBoxSizeERKNS0_4util14NormalizedBBoxEb(ptr noundef nonnull align 4 dereferenceable(24) %6, i1 noundef zeroext false)
  store float %39, ptr %7, align 4, !tbaa !46
  %40 = load float, ptr %7, align 4, !tbaa !46
  %41 = fcmp ogt float %40, 0.000000e+00
  br i1 %41, label %42, label %54

42:                                               ; preds = %2
  call void @llvm.lifetime.start.p0(i64 4, ptr %8) #3
  %43 = load ptr, ptr %4, align 8, !tbaa !189
  %44 = call noundef float @_ZN2cv3dnn24DetectionOutputLayerImpl8BBoxSizeERKNS0_4util14NormalizedBBoxEb(ptr noundef nonnull align 4 dereferenceable(24) %43, i1 noundef zeroext false)
  store float %44, ptr %8, align 4, !tbaa !46
  call void @llvm.lifetime.start.p0(i64 4, ptr %9) #3
  %45 = load ptr, ptr %5, align 8, !tbaa !189
  %46 = call noundef float @_ZN2cv3dnn24DetectionOutputLayerImpl8BBoxSizeERKNS0_4util14NormalizedBBoxEb(ptr noundef nonnull align 4 dereferenceable(24) %45, i1 noundef zeroext false)
  store float %46, ptr %9, align 4, !tbaa !46
  %47 = load float, ptr %7, align 4, !tbaa !46
  %48 = load float, ptr %8, align 4, !tbaa !46
  %49 = load float, ptr %9, align 4, !tbaa !46
  %50 = fadd float %48, %49
  %51 = load float, ptr %7, align 4, !tbaa !46
  %52 = fsub float %50, %51
  %53 = fdiv float %47, %52
  store float %53, ptr %3, align 4
  store i32 1, ptr %10, align 4
  call void @llvm.lifetime.end.p0(i64 4, ptr %9) #3
  call void @llvm.lifetime.end.p0(i64 4, ptr %8) #3
  br label %55

54:                                               ; preds = %2
  store float 0.000000e+00, ptr %3, align 4
  store i32 1, ptr %10, align 4
  br label %55

55:                                               ; preds = %54, %42
  call void @llvm.lifetime.end.p0(i64 4, ptr %7) #3
  call void @llvm.lifetime.end.p0(i64 24, ptr %6) #3
  %56 = load float, ptr %3, align 4
  ret float %56
}

; Function Attrs: inlinehint mustprogress uwtable
define internal noundef float @_ZN2cv3dnn4utilL17caffe_box_overlapERKNS1_14NormalizedBBoxES4_(ptr noundef nonnull align 4 dereferenceable(24) %0, ptr noundef nonnull align 4 dereferenceable(24) %1) #9 {
  %3 = alloca ptr, align 8
  %4 = alloca ptr, align 8
  store ptr %0, ptr %3, align 8, !tbaa !189
  store ptr %1, ptr %4, align 8, !tbaa !189
  %5 = load ptr, ptr %3, align 8, !tbaa !189
  %6 = load ptr, ptr %4, align 8, !tbaa !189
  %7 = call noundef float @_ZN2cv3dnn24DetectionOutputLayerImpl14JaccardOverlapILb0EEEfRKNS0_4util14NormalizedBBoxES6_(ptr noundef nonnull align 4 dereferenceable(24) %5, ptr noundef nonnull align 4 dereferenceable(24) %6)
  ret float %7
}