; Function Attrs: inlinehint mustprogress nofree norecurse nosync nounwind willreturn memory(argmem: read) uwtable
define internal noundef float @_ZN2cv3dnn4utilL17caffe_box_overlapERKNS1_14NormalizedBBoxES4_(ptr noundef nonnull readonly align 4 captures(none) dereferenceable(24) %0, ptr noundef nonnull readonly align 4 captures(none) dereferenceable(24) %1) #21 {
  %3 = load float, ptr %0, align 4, !tbaa !63
  %4 = load float, ptr %1, align 4, !tbaa !63
  %5 = fcmp olt float %3, %4
  %6 = select i1 %5, float %4, float %3
  %7 = getelementptr inbounds nuw i8, ptr %0, i64 4
  %8 = getelementptr inbounds nuw i8, ptr %1, i64 4
  %9 = load float, ptr %7, align 4, !tbaa !63
  %10 = load float, ptr %8, align 4, !tbaa !63
  %11 = fcmp olt float %9, %10
  %12 = select i1 %11, float %10, float %9
  %13 = getelementptr inbounds nuw i8, ptr %0, i64 8
  %14 = getelementptr inbounds nuw i8, ptr %1, i64 8
  %15 = load float, ptr %14, align 4, !tbaa !63
  %16 = load float, ptr %13, align 4, !tbaa !63
  %17 = fcmp olt float %15, %16
  %18 = select i1 %17, float %15, float %16
  %19 = getelementptr inbounds nuw i8, ptr %0, i64 12
  %20 = getelementptr inbounds nuw i8, ptr %1, i64 12
  %21 = load float, ptr %20, align 4, !tbaa !63
  %22 = load float, ptr %19, align 4, !tbaa !63
  %23 = fcmp olt float %21, %22
  %24 = select i1 %23, float %21, float %22
  %25 = fcmp olt float %18, %6
  %26 = fcmp olt float %24, %12
  %or.cond.i = select i1 %25, i1 true, i1 %26
  br i1 %or.cond.i, label %_ZN2cv3dnn24DetectionOutputLayerImpl14JaccardOverlapILb0EEEfRKNS0_4util14NormalizedBBoxES6_.exit, label %_ZN2cv3dnn24DetectionOutputLayerImpl8BBoxSizeERKNS0_4util14NormalizedBBoxEb.exit.i

_ZN2cv3dnn24DetectionOutputLayerImpl8BBoxSizeERKNS0_4util14NormalizedBBoxEb.exit.i: ; preds = %2
  %27 = fsub float %18, %6
  %28 = fsub float %24, %12
  %29 = fadd float %27, 1.000000e+00
  %30 = fadd float %28, 1.000000e+00
  %31 = fmul float %29, %30
  %32 = fcmp ogt float %31, 0.000000e+00
  br i1 %32, label %33, label %_ZN2cv3dnn24DetectionOutputLayerImpl14JaccardOverlapILb0EEEfRKNS0_4util14NormalizedBBoxES6_.exit

33:                                               ; preds = %_ZN2cv3dnn24DetectionOutputLayerImpl8BBoxSizeERKNS0_4util14NormalizedBBoxEb.exit.i
  %34 = fcmp olt float %16, %3
  %35 = fcmp olt float %22, %9
  %or.cond26.i = or i1 %34, %35
  br i1 %or.cond26.i, label %_ZN2cv3dnn24DetectionOutputLayerImpl8BBoxSizeERKNS0_4util14NormalizedBBoxEb.exit21.i, label %36

36:                                               ; preds = %33
  %37 = getelementptr inbounds nuw i8, ptr %0, i64 16
  %38 = load i8, ptr %37, align 4, !tbaa !188, !range !45, !noundef !65
  %39 = trunc nuw i8 %38 to i1
  br i1 %39, label %40, label %43

40:                                               ; preds = %36
  %41 = getelementptr inbounds nuw i8, ptr %0, i64 20
  %42 = load float, ptr %41, align 4, !tbaa !83
  br label %_ZN2cv3dnn24DetectionOutputLayerImpl8BBoxSizeERKNS0_4util14NormalizedBBoxEb.exit21.i

43:                                               ; preds = %36
  %44 = fsub float %16, %3
  %45 = fsub float %22, %9
  %46 = fadd float %44, 1.000000e+00
  %47 = fadd float %45, 1.000000e+00
  %48 = fmul float %46, %47
  br label %_ZN2cv3dnn24DetectionOutputLayerImpl8BBoxSizeERKNS0_4util14NormalizedBBoxEb.exit21.i

_ZN2cv3dnn24DetectionOutputLayerImpl8BBoxSizeERKNS0_4util14NormalizedBBoxEb.exit21.i: ; preds = %43, %40, %33
  %.0.i20.i = phi float [ %42, %40 ], [ %48, %43 ], [ 0.000000e+00, %33 ]
  %49 = fcmp olt float %15, %4
  %50 = fcmp olt float %21, %10
  %or.cond27.i = or i1 %49, %50
  br i1 %or.cond27.i, label %_ZN2cv3dnn24DetectionOutputLayerImpl8BBoxSizeERKNS0_4util14NormalizedBBoxEb.exit23.i, label %51

51:                                               ; preds = %_ZN2cv3dnn24DetectionOutputLayerImpl8BBoxSizeERKNS0_4util14NormalizedBBoxEb.exit21.i
  %52 = getelementptr inbounds nuw i8, ptr %1, i64 16
  %53 = load i8, ptr %52, align 4, !tbaa !188, !range !45, !noundef !65
  %54 = trunc nuw i8 %53 to i1
  br i1 %54, label %55, label %58

55:                                               ; preds = %51
  %56 = getelementptr inbounds nuw i8, ptr %1, i64 20
  %57 = load float, ptr %56, align 4, !tbaa !83
  br label %_ZN2cv3dnn24DetectionOutputLayerImpl8BBoxSizeERKNS0_4util14NormalizedBBoxEb.exit23.i

58:                                               ; preds = %51
  %59 = fsub float %15, %4
  %60 = fsub float %21, %10
  %61 = fadd float %59, 1.000000e+00
  %62 = fadd float %60, 1.000000e+00
  %63 = fmul float %61, %62
  br label %_ZN2cv3dnn24DetectionOutputLayerImpl8BBoxSizeERKNS0_4util14NormalizedBBoxEb.exit23.i

_ZN2cv3dnn24DetectionOutputLayerImpl8BBoxSizeERKNS0_4util14NormalizedBBoxEb.exit23.i: ; preds = %58, %55, %_ZN2cv3dnn24DetectionOutputLayerImpl8BBoxSizeERKNS0_4util14NormalizedBBoxEb.exit21.i
  %.0.i22.i = phi float [ %57, %55 ], [ %63, %58 ], [ 0.000000e+00, %_ZN2cv3dnn24DetectionOutputLayerImpl8BBoxSizeERKNS0_4util14NormalizedBBoxEb.exit21.i ]
  %64 = fadd float %.0.i20.i, %.0.i22.i
  %65 = fsub float %64, %31
  %66 = fdiv float %31, %65
  br label %_ZN2cv3dnn24DetectionOutputLayerImpl14JaccardOverlapILb0EEEfRKNS0_4util14NormalizedBBoxES6_.exit

_ZN2cv3dnn24DetectionOutputLayerImpl14JaccardOverlapILb0EEEfRKNS0_4util14NormalizedBBoxES6_.exit: ; preds = %2, %_ZN2cv3dnn24DetectionOutputLayerImpl8BBoxSizeERKNS0_4util14NormalizedBBoxEb.exit.i, %_ZN2cv3dnn24DetectionOutputLayerImpl8BBoxSizeERKNS0_4util14NormalizedBBoxEb.exit23.i
  %.0.i = phi float [ %66, %_ZN2cv3dnn24DetectionOutputLayerImpl8BBoxSizeERKNS0_4util14NormalizedBBoxEb.exit23.i ], [ 0.000000e+00, %_ZN2cv3dnn24DetectionOutputLayerImpl8BBoxSizeERKNS0_4util14NormalizedBBoxEb.exit.i ], [ 0.000000e+00, %2 ]
  ret float %.0.i
}